; Listing generated by Microsoft (R) Optimizing Compiler Version 17.00.61030.0 

	TITLE	i:\TEMP\Call_StdCall\Test.cpp
	.686P
	.XMM
	include listing.inc
	.model	flat

INCLUDELIB LIBCMT
INCLUDELIB OLDNAMES

PUBLIC	?f1@@YGHHH@Z					; f1
PUBLIC	_main
EXTRN	@__security_check_cookie@4:PROC
EXTRN	___security_cookie:DWORD
; Function compile flags: /Odtp
_TEXT	SEGMENT
_args$ = 8						; size = 4
_main	PROC
; File i:\temp\call_stdcall\test.cpp
; Line 13
  00000	55		 push	 ebp
  00001	8b ec		 mov	 ebp, esp
; Line 14
  00003	68 ea 03 00 00	 push	 1002			; 000003eaH
  00008	68 e9 03 00 00	 push	 1001			; 000003e9H
  0000d	e8 00 00 00 00	 call	 ?f1@@YGHHH@Z		; f1
; Line 16
  00012	33 c0		 xor	 eax, eax
; Line 17
  00014	5d		 pop	 ebp
  00015	c3		 ret	 0
_main	ENDP
_TEXT	ENDS
; Function compile flags: /Odtp
_TEXT	SEGMENT
_v1$ = -108						; size = 4
_c$ = -104						; size = 100
__$ArrayPad$ = -4					; size = 4
_a1$ = 8						; size = 4
_a2$ = 12						; size = 4
?f1@@YGHHH@Z PROC					; f1
; File i:\temp\call_stdcall\test.cpp
; Line 4
  00000	55		 push	 ebp
  00001	8b ec		 mov	 ebp, esp
  00003	83 ec 6c	 sub	 esp, 108		; 0000006cH
  00006	a1 00 00 00 00	 mov	 eax, DWORD PTR ___security_cookie
  0000b	33 c5		 xor	 eax, ebp
  0000d	89 45 fc	 mov	 DWORD PTR __$ArrayPad$[ebp], eax
; Line 7
  00010	b8 01 00 00 00	 mov	 eax, 1
  00015	6b c0 0c	 imul	 eax, 12			; 0000000cH
  00018	0f be 4c 05 98	 movsx	 ecx, BYTE PTR _c$[ebp+eax]
  0001d	89 4d 94	 mov	 DWORD PTR _v1$[ebp], ecx
; Line 8
  00020	8b 55 94	 mov	 edx, DWORD PTR _v1$[ebp]
  00023	03 55 08	 add	 edx, DWORD PTR _a1$[ebp]
  00026	89 55 94	 mov	 DWORD PTR _v1$[ebp], edx
; Line 9
  00029	8b 45 94	 mov	 eax, DWORD PTR _v1$[ebp]
; Line 10
  0002c	8b 4d fc	 mov	 ecx, DWORD PTR __$ArrayPad$[ebp]
  0002f	33 cd		 xor	 ecx, ebp
  00031	e8 00 00 00 00	 call	 @__security_check_cookie@4
  00036	8b e5		 mov	 esp, ebp
  00038	5d		 pop	 ebp
  00039	c2 08 00	 ret	 8
?f1@@YGHHH@Z ENDP					; f1
_TEXT	ENDS
END
