; Listing generated by Microsoft (R) Optimizing Compiler Version 17.00.61030.0 

	TITLE	i:\TEMP\Factorial_cdecl\Test.cpp
	.686P
	.XMM
	include listing.inc
	.model	flat

INCLUDELIB LIBCMT
INCLUDELIB OLDNAMES

CONST	SEGMENT
$SG3724	DB	'%I64d', 00H
CONST	ENDS
PUBLIC	?f1@@YA_K_K@Z					; f1
PUBLIC	_main
EXTRN	_printf:PROC
; Function compile flags: /Odtp
_TEXT	SEGMENT
_r$ = -8						; size = 8
_args$ = 8						; size = 4
_main	PROC
; File i:\temp\factorial_cdecl\test.cpp
; Line 11
  00000	55		 push	 ebp
  00001	8b ec		 mov	 ebp, esp
  00003	83 ec 08	 sub	 esp, 8
; Line 20
  00006	6a 00		 push	 0
  00008	68 00 fa 00 00	 push	 64000			; 0000fa00H
  0000d	e8 00 00 00 00	 call	 ?f1@@YA_K_K@Z		; f1
  00012	83 c4 08	 add	 esp, 8
  00015	89 45 f8	 mov	 DWORD PTR _r$[ebp], eax
  00018	89 55 fc	 mov	 DWORD PTR _r$[ebp+4], edx
; Line 21
  0001b	8b 45 fc	 mov	 eax, DWORD PTR _r$[ebp+4]
  0001e	50		 push	 eax
  0001f	8b 4d f8	 mov	 ecx, DWORD PTR _r$[ebp]
  00022	51		 push	 ecx
  00023	68 00 00 00 00	 push	 OFFSET $SG3724
  00028	e8 00 00 00 00	 call	 _printf
  0002d	83 c4 0c	 add	 esp, 12			; 0000000cH
; Line 22
  00030	33 c0		 xor	 eax, eax
; Line 23
  00032	8b e5		 mov	 esp, ebp
  00034	5d		 pop	 ebp
  00035	c3		 ret	 0
_main	ENDP
_TEXT	ENDS
; Function compile flags: /Odtp
_TEXT	SEGMENT
_n$ = 8							; size = 8
?f1@@YA_K_K@Z PROC					; f1
; File i:\temp\factorial_cdecl\test.cpp
; Line 5
  00000	55		 push	 ebp
  00001	8b ec		 mov	 ebp, esp
; Line 6
  00003	83 7d 0c 00	 cmp	 DWORD PTR _n$[ebp+4], 0
  00007	77 11		 ja	 SHORT $LN1@f1
  00009	72 06		 jb	 SHORT $LN4@f1
  0000b	83 7d 08 00	 cmp	 DWORD PTR _n$[ebp], 0
  0000f	77 09		 ja	 SHORT $LN1@f1
$LN4@f1:
  00011	b8 01 00 00 00	 mov	 eax, 1
  00016	33 d2		 xor	 edx, edx
  00018	eb 1c		 jmp	 SHORT $LN2@f1
$LN1@f1:
; Line 7
  0001a	8b 45 08	 mov	 eax, DWORD PTR _n$[ebp]
  0001d	83 e8 01	 sub	 eax, 1
  00020	8b 4d 0c	 mov	 ecx, DWORD PTR _n$[ebp+4]
  00023	83 d9 00	 sbb	 ecx, 0
  00026	51		 push	 ecx
  00027	50		 push	 eax
  00028	e8 00 00 00 00	 call	 ?f1@@YA_K_K@Z		; f1
  0002d	83 c4 08	 add	 esp, 8
  00030	03 45 08	 add	 eax, DWORD PTR _n$[ebp]
  00033	13 55 0c	 adc	 edx, DWORD PTR _n$[ebp+4]
$LN2@f1:
; Line 8
  00036	5d		 pop	 ebp
  00037	c3		 ret	 0
?f1@@YA_K_K@Z ENDP					; f1
_TEXT	ENDS
END
